; Function Attrs: mustprogress nofree norecurse nosync nounwind memory(write, argmem: readwrite, inaccessiblemem: none) uwtable
define dso_local void @_ZN11btMultiBody15clearVelocitiesEv(ptr nocapture noundef nonnull readonly align 8 dereferenceable(640) %this) local_unnamed_addr #3 align 2 {
entry:
  %m_dofCount.i = getelementptr inbounds i8, ptr %this, i64 628
  %0 = load i32, ptr %m_dofCount.i, align 4
  %cmp4 = icmp sgt i32 %0, -6
  br i1 %cmp4, label %for.body.lr.ph, label %for.end

for.body.lr.ph:                                   ; preds = %entry
  %m_data.i = getelementptr inbounds i8, ptr %this, i64 288
  br label %for.body

for.body:                                         ; preds = %for.body.lr.ph, %for.body
  %indvars.iv = phi i64 [ 0, %for.body.lr.ph ], [ %indvars.iv.next, %for.body ]
  %1 = load ptr, ptr %m_data.i, align 8
  %arrayidx.i = getelementptr inbounds float, ptr %1, i64 %indvars.iv
  store float 0.000000e+00, ptr %arrayidx.i, align 4
  %indvars.iv.next = add nuw nsw i64 %indvars.iv, 1
  %2 = load i32, ptr %m_dofCount.i, align 4
  %3 = add nsw i32 %2, 5
  %4 = sext i32 %3 to i64
  %cmp = icmp slt i64 %indvars.iv, %4
  br i1 %cmp, label %for.body, label %for.end, !llvm.loop !25

for.end:                                          ; preds = %for.body, %entry
  ret void
}